target datalayout = "e-m:e-p270:32:32-p271:32:32-p272:64:64-i64:64-i128:128-f80:128-n8:16:32:64-S128"
target triple = "x86_64-pc-linux-gnu"

%"class.std::__cxx11::basic_string" = type { %"struct.std::__cxx11::basic_string<char>::_Alloc_hider", i64, %union.anon }
%"struct.std::__cxx11::basic_string<char>::_Alloc_hider" = type { ptr }
%union.anon = type { i64, [8 x i8] }
%class.cmComputeTargetDepends = type { ptr, i8, i8, %"class.std::vector", %"class.std::map", %struct.cmGraphAdjacencyList, %struct.cmGraphAdjacencyList, %struct.cmGraphAdjacencyList, %"class.std::vector.11", %"class.std::vector.16", %"class.std::vector.16" }
%"class.std::vector" = type { %"struct.std::_Vector_base" }
%"struct.std::_Vector_base" = type { %"struct.std::_Vector_base<const cmGeneratorTarget *, std::allocator<const cmGeneratorTarget *>>::_Vector_impl" }
%"struct.std::_Vector_base<const cmGeneratorTarget *, std::allocator<const cmGeneratorTarget *>>::_Vector_impl" = type { %"struct.std::_Vector_base<const cmGeneratorTarget *, std::allocator<const cmGeneratorTarget *>>::_Vector_impl_data" }
%"struct.std::_Vector_base<const cmGeneratorTarget *, std::allocator<const cmGeneratorTarget *>>::_Vector_impl_data" = type { ptr, ptr, ptr }
%"class.std::map" = type { %"class.std::_Rb_tree" }
%"class.std::_Rb_tree" = type { %"struct.std::_Rb_tree<const cmGeneratorTarget *, std::pair<const cmGeneratorTarget *const, unsigned long>, std::_Select1st<std::pair<const cmGeneratorTarget *const, unsigned long>>, std::less<const cmGeneratorTarget *>>::_Rb_tree_impl" }
%"struct.std::_Rb_tree<const cmGeneratorTarget *, std::pair<const cmGeneratorTarget *const, unsigned long>, std::_Select1st<std::pair<const cmGeneratorTarget *const, unsigned long>>, std::less<const cmGeneratorTarget *>>::_Rb_tree_impl" = type { [8 x i8], %"struct.std::_Rb_tree_header" }
%"struct.std::_Rb_tree_header" = type { %"struct.std::_Rb_tree_node_base", i64 }
%"struct.std::_Rb_tree_node_base" = type { i32, ptr, ptr, ptr }
%struct.cmGraphAdjacencyList = type { %"class.std::vector.6" }
%"class.std::vector.6" = type { %"struct.std::_Vector_base.7" }
%"struct.std::_Vector_base.7" = type { %"struct.std::_Vector_base<cmGraphEdgeList, std::allocator<cmGraphEdgeList>>::_Vector_impl" }
%"struct.std::_Vector_base<cmGraphEdgeList, std::allocator<cmGraphEdgeList>>::_Vector_impl" = type { %"struct.std::_Vector_base<cmGraphEdgeList, std::allocator<cmGraphEdgeList>>::_Vector_impl_data" }
%"struct.std::_Vector_base<cmGraphEdgeList, std::allocator<cmGraphEdgeList>>::_Vector_impl_data" = type { ptr, ptr, ptr }
%"class.std::vector.11" = type { %"struct.std::_Vector_base.12" }
%"struct.std::_Vector_base.12" = type { %"struct.std::_Vector_base<cmComputeTargetDepends::TargetSideEffects, std::allocator<cmComputeTargetDepends::TargetSideEffects>>::_Vector_impl" }
%"struct.std::_Vector_base<cmComputeTargetDepends::TargetSideEffects, std::allocator<cmComputeTargetDepends::TargetSideEffects>>::_Vector_impl" = type { %"struct.std::_Vector_base<cmComputeTargetDepends::TargetSideEffects, std::allocator<cmComputeTargetDepends::TargetSideEffects>>::_Vector_impl_data" }
%"struct.std::_Vector_base<cmComputeTargetDepends::TargetSideEffects, std::allocator<cmComputeTargetDepends::TargetSideEffects>>::_Vector_impl_data" = type { ptr, ptr, ptr }
%"class.std::vector.16" = type { %"struct.std::_Vector_base.17" }
%"struct.std::_Vector_base.17" = type { %"struct.std::_Vector_base<unsigned long, std::allocator<unsigned long>>::_Vector_impl" }
%"struct.std::_Vector_base<unsigned long, std::allocator<unsigned long>>::_Vector_impl" = type { %"struct.std::_Vector_base<unsigned long, std::allocator<unsigned long>>::_Vector_impl_data" }
%"struct.std::_Vector_base<unsigned long, std::allocator<unsigned long>>::_Vector_impl_data" = type { ptr, ptr, ptr }
%"class.std::__shared_count" = type { ptr }
%"class.__gnu_cxx::__normal_iterator" = type { ptr }
%class.cmListFileBacktrace = type { %class.cmConstStack }
%class.cmConstStack = type { %"class.std::shared_ptr.420" }
%"class.std::shared_ptr.420" = type { %"class.std::__shared_ptr.421" }
%"class.std::__shared_ptr.421" = type { ptr, %"class.std::__shared_count" }
%struct.cmGraphEdgeList = type { %"class.std::vector.415" }
%"class.std::vector.415" = type { %"struct.std::_Vector_base.416" }
%"struct.std::_Vector_base.416" = type { %"struct.std::_Vector_base<cmGraphEdge, std::allocator<cmGraphEdge>>::_Vector_impl" }
%"struct.std::_Vector_base<cmGraphEdge, std::allocator<cmGraphEdge>>::_Vector_impl" = type { %"struct.std::_Vector_base<cmGraphEdge, std::allocator<cmGraphEdge>>::_Vector_impl_data" }
%"struct.std::_Vector_base<cmGraphEdge, std::allocator<cmGraphEdge>>::_Vector_impl_data" = type { ptr, ptr, ptr }
%class.cmGraphEdge = type { i64, i8, i8, %class.cmListFileBacktrace }

@stderr = external global ptr, align 8
@.str.12 = private unnamed_addr constant [36 x i8] c"The %s target dependency graph is:\0A\00", align 1
@.str.13 = private unnamed_addr constant [20 x i8] c"target %zu is [%s]\0A\00", align 1
@.str.14 = private unnamed_addr constant [35 x i8] c"  depends on target %zu [%s] (%s)\0A\00", align 1
@.str.15 = private unnamed_addr constant [7 x i8] c"strong\00", align 1
@.str.16 = private unnamed_addr constant [5 x i8] c"weak\00", align 1
@.str.17 = private unnamed_addr constant [2 x i8] c"\0A\00", align 1

; Function Attrs: mustprogress nounwind uwtable
define linkonce_odr dso_local noundef nonnull align 8 dereferenceable(8) ptr @_ZNK9__gnu_cxx17__normal_iteratorIPK11cmGraphEdgeSt6vectorIS1_SaIS1_EEE4baseEv(ptr noundef nonnull align 8 dereferenceable(8) %0) #6 comdat align 2 {
  %2 = alloca ptr, align 8
  store ptr %0, ptr %2, align 8, !tbaa !260
  %3 = load ptr, ptr %2, align 8
  %4 = getelementptr inbounds nuw %"class.__gnu_cxx::__normal_iterator", ptr %3, i32 0, i32 0
  ret ptr %4
}

; Function Attrs: mustprogress nounwind uwtable
define linkonce_odr dso_local void @_ZN9__gnu_cxx17__normal_iteratorIPK11cmGraphEdgeSt6vectorIS1_SaIS1_EEEC2ERKS3_(ptr noundef nonnull align 8 dereferenceable(8) %0, ptr noundef nonnull align 8 dereferenceable(8) %1) unnamed_addr #6 comdat align 2 {
  %3 = alloca ptr, align 8
  %4 = alloca ptr, align 8
  store ptr %0, ptr %3, align 8, !tbaa !260
  store ptr %1, ptr %4, align 8, !tbaa !672
  %5 = load ptr, ptr %3, align 8
  %6 = getelementptr inbounds nuw %"class.__gnu_cxx::__normal_iterator", ptr %5, i32 0, i32 0
  %7 = load ptr, ptr %4, align 8, !tbaa !672
  %8 = load ptr, ptr %7, align 8, !tbaa !222
  store ptr %8, ptr %6, align 8, !tbaa !262
  ret void
}

; Function Attrs: mustprogress nounwind uwtable
define available_externally noundef ptr @_ZNKSt7__cxx1112basic_stringIcSt11char_traitsIcESaIcEE7_M_dataEv(ptr noundef nonnull align 8 dereferenceable(32) %0) #6 align 2 {
  %2 = alloca ptr, align 8
  store ptr %0, ptr %2, align 8, !tbaa !18
  %3 = load ptr, ptr %2, align 8
  %4 = getelementptr inbounds nuw %"class.std::__cxx11::basic_string", ptr %3, i32 0, i32 0
  %5 = getelementptr inbounds nuw %"struct.std::__cxx11::basic_string<char>::_Alloc_hider", ptr %4, i32 0, i32 0
  %6 = load ptr, ptr %5, align 8, !tbaa !683
  ret ptr %6
}

; Function Attrs: mustprogress nounwind uwtable
define linkonce_odr dso_local noundef nonnull align 8 dereferenceable(8) ptr @_ZN9__gnu_cxx17__normal_iteratorIPK11cmGraphEdgeSt6vectorIS1_SaIS1_EEEppEv(ptr noundef nonnull align 8 dereferenceable(8) %0) #6 comdat align 2 {
  %2 = alloca ptr, align 8
  store ptr %0, ptr %2, align 8, !tbaa !260
  %3 = load ptr, ptr %2, align 8
  %4 = getelementptr inbounds nuw %"class.__gnu_cxx::__normal_iterator", ptr %3, i32 0, i32 0
  %5 = load ptr, ptr %4, align 8, !tbaa !262
  %6 = getelementptr inbounds nuw %class.cmGraphEdge, ptr %5, i32 1
  store ptr %6, ptr %4, align 8, !tbaa !262
  ret ptr %3
}

; Function Attrs: mustprogress nounwind uwtable
define linkonce_odr dso_local noundef zeroext i1 @_ZNK11cmGraphEdge8IsStrongEv(ptr noundef nonnull align 8 dereferenceable(32) %0) #6 comdat align 2 {
  %2 = alloca ptr, align 8
  store ptr %0, ptr %2, align 8, !tbaa !222
  %3 = load ptr, ptr %2, align 8
  %4 = getelementptr inbounds nuw %class.cmGraphEdge, ptr %3, i32 0, i32 1
  %5 = load i8, ptr %4, align 8, !tbaa !286, !range !206, !noundef !207
  %6 = trunc i8 %5 to i1
  ret i1 %6
}

; Function Attrs: mustprogress nounwind uwtable
define linkonce_odr dso_local noundef i64 @_ZNK11cmGraphEdgecvmEv(ptr noundef nonnull align 8 dereferenceable(32) %0) #6 comdat align 2 {
  %2 = alloca ptr, align 8
  store ptr %0, ptr %2, align 8, !tbaa !222
  %3 = load ptr, ptr %2, align 8
  %4 = getelementptr inbounds nuw %class.cmGraphEdge, ptr %3, i32 0, i32 0
  %5 = load i64, ptr %4, align 8, !tbaa !264
  ret i64 %5
}

; Function Attrs: mustprogress nounwind uwtable
define linkonce_odr dso_local noundef nonnull align 8 dereferenceable(32) ptr @_ZNK9__gnu_cxx17__normal_iteratorIPK11cmGraphEdgeSt6vectorIS1_SaIS1_EEEdeEv(ptr noundef nonnull align 8 dereferenceable(8) %0) #6 comdat align 2 {
  %2 = alloca ptr, align 8
  store ptr %0, ptr %2, align 8, !tbaa !260
  %3 = load ptr, ptr %2, align 8
  %4 = getelementptr inbounds nuw %"class.__gnu_cxx::__normal_iterator", ptr %3, i32 0, i32 0
  %5 = load ptr, ptr %4, align 8, !tbaa !262
  ret ptr %5
}

; Function Attrs: inlinehint mustprogress nounwind uwtable
define linkonce_odr dso_local noundef zeroext i1 @_ZN9__gnu_cxxneIPK11cmGraphEdgeSt6vectorIS1_SaIS1_EEEEbRKNS_17__normal_iteratorIT_T0_EESC_(ptr noundef nonnull align 8 dereferenceable(8) %0, ptr noundef nonnull align 8 dereferenceable(8) %1) #7 comdat {
  %3 = alloca ptr, align 8
  %4 = alloca ptr, align 8
  store ptr %0, ptr %3, align 8, !tbaa !260
  store ptr %1, ptr %4, align 8, !tbaa !260
  %5 = load ptr, ptr %3, align 8, !tbaa !260
  %6 = call noundef nonnull align 8 dereferenceable(8) ptr @_ZNK9__gnu_cxx17__normal_iteratorIPK11cmGraphEdgeSt6vectorIS1_SaIS1_EEE4baseEv(ptr noundef nonnull align 8 dereferenceable(8) %5) #3
  %7 = load ptr, ptr %6, align 8, !tbaa !222
  %8 = load ptr, ptr %4, align 8, !tbaa !260
  %9 = call noundef nonnull align 8 dereferenceable(8) ptr @_ZNK9__gnu_cxx17__normal_iteratorIPK11cmGraphEdgeSt6vectorIS1_SaIS1_EEE4baseEv(ptr noundef nonnull align 8 dereferenceable(8) %8) #3
  %10 = load ptr, ptr %9, align 8, !tbaa !222
  %11 = icmp ne ptr %7, %10
  ret i1 %11
}

; Function Attrs: mustprogress nounwind uwtable
define linkonce_odr dso_local ptr @_ZNKSt6vectorI11cmGraphEdgeSaIS0_EE3endEv(ptr noundef nonnull align 8 dereferenceable(24) %0) #6 comdat align 2 {
  %2 = alloca %"class.__gnu_cxx::__normal_iterator", align 8
  %3 = alloca ptr, align 8
  store ptr %0, ptr %3, align 8, !tbaa !258
  %4 = load ptr, ptr %3, align 8
  %5 = getelementptr inbounds nuw %"struct.std::_Vector_base.416", ptr %4, i32 0, i32 0
  %6 = getelementptr inbounds nuw %"struct.std::_Vector_base<cmGraphEdge, std::allocator<cmGraphEdge>>::_Vector_impl_data", ptr %5, i32 0, i32 1
  call void @_ZN9__gnu_cxx17__normal_iteratorIPK11cmGraphEdgeSt6vectorIS1_SaIS1_EEEC2ERKS3_(ptr noundef nonnull align 8 dereferenceable(8) %2, ptr noundef nonnull align 8 dereferenceable(8) %6) #3
  %7 = getelementptr inbounds nuw %"class.__gnu_cxx::__normal_iterator", ptr %2, i32 0, i32 0
  %8 = load ptr, ptr %7, align 8
  ret ptr %8
}

; Function Attrs: mustprogress nounwind uwtable
define linkonce_odr dso_local ptr @_ZNKSt6vectorI11cmGraphEdgeSaIS0_EE5beginEv(ptr noundef nonnull align 8 dereferenceable(24) %0) #6 comdat align 2 {
  %2 = alloca %"class.__gnu_cxx::__normal_iterator", align 8
  %3 = alloca ptr, align 8
  store ptr %0, ptr %3, align 8, !tbaa !258
  %4 = load ptr, ptr %3, align 8
  %5 = getelementptr inbounds nuw %"struct.std::_Vector_base.416", ptr %4, i32 0, i32 0
  %6 = getelementptr inbounds nuw %"struct.std::_Vector_base<cmGraphEdge, std::allocator<cmGraphEdge>>::_Vector_impl_data", ptr %5, i32 0, i32 0
  call void @_ZN9__gnu_cxx17__normal_iteratorIPK11cmGraphEdgeSt6vectorIS1_SaIS1_EEEC2ERKS3_(ptr noundef nonnull align 8 dereferenceable(8) %2, ptr noundef nonnull align 8 dereferenceable(8) %6) #3
  %7 = getelementptr inbounds nuw %"class.__gnu_cxx::__normal_iterator", ptr %2, i32 0, i32 0
  %8 = load ptr, ptr %7, align 8
  ret ptr %8
}

; Function Attrs: mustprogress nounwind uwtable
define linkonce_odr dso_local noundef nonnull align 8 dereferenceable(8) ptr @_ZNSt6vectorIPK17cmGeneratorTargetSaIS2_EEixEm(ptr noundef nonnull align 8 dereferenceable(24) %0, i64 noundef %1) #6 comdat align 2 {
  %3 = alloca ptr, align 8
  %4 = alloca i64, align 8
  store ptr %0, ptr %3, align 8, !tbaa !61
  store i64 %1, ptr %4, align 8, !tbaa !17
  %5 = load ptr, ptr %3, align 8
  %6 = getelementptr inbounds nuw %"struct.std::_Vector_base", ptr %5, i32 0, i32 0
  %7 = getelementptr inbounds nuw %"struct.std::_Vector_base<const cmGeneratorTarget *, std::allocator<const cmGeneratorTarget *>>::_Vector_impl_data", ptr %6, i32 0, i32 0
  %8 = load ptr, ptr %7, align 8, !tbaa !204
  %9 = load i64, ptr %4, align 8, !tbaa !17
  %10 = getelementptr inbounds nuw ptr, ptr %8, i64 %9
  ret ptr %10
}

; Function Attrs: mustprogress nounwind uwtable
define linkonce_odr dso_local noundef nonnull align 8 dereferenceable(24) ptr @_ZNKSt6vectorI15cmGraphEdgeListSaIS0_EEixEm(ptr noundef nonnull align 8 dereferenceable(24) %0, i64 noundef %1) #6 comdat align 2 {
  %3 = alloca ptr, align 8
  %4 = alloca i64, align 8
  store ptr %0, ptr %3, align 8, !tbaa !200
  store i64 %1, ptr %4, align 8, !tbaa !17
  %5 = load ptr, ptr %3, align 8
  %6 = getelementptr inbounds nuw %"struct.std::_Vector_base.7", ptr %5, i32 0, i32 0
  %7 = getelementptr inbounds nuw %"struct.std::_Vector_base<cmGraphEdgeList, std::allocator<cmGraphEdgeList>>::_Vector_impl_data", ptr %6, i32 0, i32 0
  %8 = load ptr, ptr %7, align 8, !tbaa !202
  %9 = load i64, ptr %4, align 8, !tbaa !17
  %10 = getelementptr inbounds nuw %struct.cmGraphEdgeList, ptr %8, i64 %9
  ret ptr %10
}

; Function Attrs: mustprogress nounwind uwtable
define linkonce_odr dso_local noundef i64 @_ZNKSt6vectorI15cmGraphEdgeListSaIS0_EE4sizeEv(ptr noundef nonnull align 8 dereferenceable(24) %0) #6 comdat align 2 {
  %2 = alloca ptr, align 8
  store ptr %0, ptr %2, align 8, !tbaa !200
  %3 = load ptr, ptr %2, align 8
  %4 = getelementptr inbounds nuw %"struct.std::_Vector_base.7", ptr %3, i32 0, i32 0
  %5 = getelementptr inbounds nuw %"struct.std::_Vector_base<cmGraphEdgeList, std::allocator<cmGraphEdgeList>>::_Vector_impl_data", ptr %4, i32 0, i32 1
  %6 = load ptr, ptr %5, align 8, !tbaa !203
  %7 = getelementptr inbounds nuw %"struct.std::_Vector_base.7", ptr %3, i32 0, i32 0
  %8 = getelementptr inbounds nuw %"struct.std::_Vector_base<cmGraphEdgeList, std::allocator<cmGraphEdgeList>>::_Vector_impl_data", ptr %7, i32 0, i32 0
  %9 = load ptr, ptr %8, align 8, !tbaa !202
  %10 = ptrtoint ptr %6 to i64
  %11 = ptrtoint ptr %9 to i64
  %12 = sub i64 %10, %11
  %13 = sdiv exact i64 %12, 24
  ret i64 %13
}

; Function Attrs: mustprogress nounwind uwtable
define available_externally noundef ptr @_ZNKSt7__cxx1112basic_stringIcSt11char_traitsIcESaIcEE5c_strEv(ptr noundef nonnull align 8 dereferenceable(32) %0) #6 align 2 {
  %2 = alloca ptr, align 8
  store ptr %0, ptr %2, align 8, !tbaa !18
  %3 = load ptr, ptr %2, align 8
  %4 = call noundef ptr @_ZNKSt7__cxx1112basic_stringIcSt11char_traitsIcESaIcEE7_M_dataEv(ptr noundef nonnull align 8 dereferenceable(32) %3)
  ret ptr %4
}

; Function Attrs: mustprogress uwtable
define dso_local void @_ZN22cmComputeTargetDepends12DisplayGraphERK20cmGraphAdjacencyListRKNSt7__cxx1112basic_stringIcSt11char_traitsIcESaIcEEE(ptr noundef nonnull align 8 dereferenceable(232) %0, ptr noundef nonnull align 8 dereferenceable(24) %1, ptr noundef nonnull align 8 dereferenceable(32) %2) #5 align 2 {
  %4 = alloca ptr, align 8
  %5 = alloca ptr, align 8
  %6 = alloca ptr, align 8
  %7 = alloca i64, align 8
  %8 = alloca i64, align 8
  %9 = alloca i32, align 4
  %10 = alloca ptr, align 8
  %11 = alloca ptr, align 8
  %12 = alloca ptr, align 8
  %13 = alloca %"class.__gnu_cxx::__normal_iterator", align 8
  %14 = alloca %"class.__gnu_cxx::__normal_iterator", align 8
  %15 = alloca ptr, align 8
  %16 = alloca i64, align 8
  %17 = alloca ptr, align 8
  store ptr %0, ptr %4, align 8, !tbaa !20
  store ptr %1, ptr %5, align 8, !tbaa !65
  store ptr %2, ptr %6, align 8, !tbaa !18
  %18 = load ptr, ptr %4, align 8
  %19 = load ptr, ptr @stderr, align 8, !tbaa !219
  %20 = load ptr, ptr %6, align 8, !tbaa !18
  %21 = call noundef ptr @_ZNKSt7__cxx1112basic_stringIcSt11char_traitsIcESaIcEE5c_strEv(ptr noundef nonnull align 8 dereferenceable(32) %20) #3
  %22 = call i32 (ptr, ptr, ...) @fprintf(ptr noundef %19, ptr noundef @.str.12, ptr noundef %21) #3
  call void @llvm.lifetime.start.p0(i64 8, ptr %7) #3
  %23 = load ptr, ptr %5, align 8, !tbaa !65
  %24 = call noundef i64 @_ZNKSt6vectorI15cmGraphEdgeListSaIS0_EE4sizeEv(ptr noundef nonnull align 8 dereferenceable(24) %23) #3
  store i64 %24, ptr %7, align 8, !tbaa !17
  call void @llvm.lifetime.start.p0(i64 8, ptr %8) #3
  store i64 0, ptr %8, align 8, !tbaa !17
  br label %25

25:                                               ; preds = %74, %3
  %26 = load i64, ptr %8, align 8, !tbaa !17
  %27 = load i64, ptr %7, align 8, !tbaa !17
  %28 = icmp ult i64 %26, %27
  br i1 %28, label %30, label %29

29:                                               ; preds = %25
  store i32 2, ptr %9, align 4
  call void @llvm.lifetime.end.p0(i64 8, ptr %8) #3
  br label %77

30:                                               ; preds = %25
  call void @llvm.lifetime.start.p0(i64 8, ptr %10) #3
  %31 = load ptr, ptr %5, align 8, !tbaa !65
  %32 = load i64, ptr %8, align 8, !tbaa !17
  %33 = call noundef nonnull align 8 dereferenceable(24) ptr @_ZNKSt6vectorI15cmGraphEdgeListSaIS0_EEixEm(ptr noundef nonnull align 8 dereferenceable(24) %31, i64 noundef %32) #3
  store ptr %33, ptr %10, align 8, !tbaa !221
  call void @llvm.lifetime.start.p0(i64 8, ptr %11) #3
  %34 = getelementptr inbounds nuw %class.cmComputeTargetDepends, ptr %18, i32 0, i32 3
  %35 = load i64, ptr %8, align 8, !tbaa !17
  %36 = call noundef nonnull align 8 dereferenceable(8) ptr @_ZNSt6vectorIPK17cmGeneratorTargetSaIS2_EEixEm(ptr noundef nonnull align 8 dereferenceable(24) %34, i64 noundef %35) #3
  %37 = load ptr, ptr %36, align 8, !tbaa !215
  store ptr %37, ptr %11, align 8, !tbaa !215
  %38 = load ptr, ptr @stderr, align 8, !tbaa !219
  %39 = load i64, ptr %8, align 8, !tbaa !17
  %40 = load ptr, ptr %11, align 8, !tbaa !215
  %41 = call noundef nonnull align 8 dereferenceable(32) ptr @_ZNK17cmGeneratorTarget7GetNameB5cxx11Ev(ptr noundef nonnull align 8 dereferenceable(2912) %40)
  %42 = call noundef ptr @_ZNKSt7__cxx1112basic_stringIcSt11char_traitsIcESaIcEE5c_strEv(ptr noundef nonnull align 8 dereferenceable(32) %41) #3
  %43 = call i32 (ptr, ptr, ...) @fprintf(ptr noundef %38, ptr noundef @.str.13, i64 noundef %39, ptr noundef %42) #3
  call void @llvm.lifetime.start.p0(i64 8, ptr %12) #3
  %44 = load ptr, ptr %10, align 8, !tbaa !221
  store ptr %44, ptr %12, align 8, !tbaa !221
  call void @llvm.lifetime.start.p0(i64 8, ptr %13) #3
  %45 = load ptr, ptr %12, align 8, !tbaa !221
  %46 = call ptr @_ZNKSt6vectorI11cmGraphEdgeSaIS0_EE5beginEv(ptr noundef nonnull align 8 dereferenceable(24) %45) #3
  %47 = getelementptr inbounds nuw %"class.__gnu_cxx::__normal_iterator", ptr %13, i32 0, i32 0
  store ptr %46, ptr %47, align 8
  call void @llvm.lifetime.start.p0(i64 8, ptr %14) #3
  %48 = load ptr, ptr %12, align 8, !tbaa !221
  %49 = call ptr @_ZNKSt6vectorI11cmGraphEdgeSaIS0_EE3endEv(ptr noundef nonnull align 8 dereferenceable(24) %48) #3
  %50 = getelementptr inbounds nuw %"class.__gnu_cxx::__normal_iterator", ptr %14, i32 0, i32 0
  store ptr %49, ptr %50, align 8
  br label %51

51:                                               ; preds = %71, %30
  %52 = call noundef zeroext i1 @_ZN9__gnu_cxxneIPK11cmGraphEdgeSt6vectorIS1_SaIS1_EEEEbRKNS_17__normal_iteratorIT_T0_EESC_(ptr noundef nonnull align 8 dereferenceable(8) %13, ptr noundef nonnull align 8 dereferenceable(8) %14) #3
  br i1 %52, label %54, label %53

53:                                               ; preds = %51
  store i32 5, ptr %9, align 4
  call void @llvm.lifetime.end.p0(i64 8, ptr %14) #3
  call void @llvm.lifetime.end.p0(i64 8, ptr %13) #3
  call void @llvm.lifetime.end.p0(i64 8, ptr %12) #3
  br label %73

54:                                               ; preds = %51
  call void @llvm.lifetime.start.p0(i64 8, ptr %15) #3
  %55 = call noundef nonnull align 8 dereferenceable(32) ptr @_ZNK9__gnu_cxx17__normal_iteratorIPK11cmGraphEdgeSt6vectorIS1_SaIS1_EEEdeEv(ptr noundef nonnull align 8 dereferenceable(8) %13) #3
  store ptr %55, ptr %15, align 8, !tbaa !222
  call void @llvm.lifetime.start.p0(i64 8, ptr %16) #3
  %56 = load ptr, ptr %15, align 8, !tbaa !222
  %57 = call noundef i64 @_ZNK11cmGraphEdgecvmEv(ptr noundef nonnull align 8 dereferenceable(32) %56)
  store i64 %57, ptr %16, align 8, !tbaa !17
  call void @llvm.lifetime.start.p0(i64 8, ptr %17) #3
  %58 = getelementptr inbounds nuw %class.cmComputeTargetDepends, ptr %18, i32 0, i32 3
  %59 = load i64, ptr %16, align 8, !tbaa !17
  %60 = call noundef nonnull align 8 dereferenceable(8) ptr @_ZNSt6vectorIPK17cmGeneratorTargetSaIS2_EEixEm(ptr noundef nonnull align 8 dereferenceable(24) %58, i64 noundef %59) #3
  %61 = load ptr, ptr %60, align 8, !tbaa !215
  store ptr %61, ptr %17, align 8, !tbaa !215
  %62 = load ptr, ptr @stderr, align 8, !tbaa !219
  %63 = load i64, ptr %16, align 8, !tbaa !17
  %64 = load ptr, ptr %17, align 8, !tbaa !215
  %65 = call noundef nonnull align 8 dereferenceable(32) ptr @_ZNK17cmGeneratorTarget7GetNameB5cxx11Ev(ptr noundef nonnull align 8 dereferenceable(2912) %64)
  %66 = call noundef ptr @_ZNKSt7__cxx1112basic_stringIcSt11char_traitsIcESaIcEE5c_strEv(ptr noundef nonnull align 8 dereferenceable(32) %65) #3
  %67 = load ptr, ptr %15, align 8, !tbaa !222
  %68 = call noundef zeroext i1 @_ZNK11cmGraphEdge8IsStrongEv(ptr noundef nonnull align 8 dereferenceable(32) %67)
  %69 = select i1 %68, ptr @.str.15, ptr @.str.16
  %70 = call i32 (ptr, ptr, ...) @fprintf(ptr noundef %62, ptr noundef @.str.14, i64 noundef %63, ptr noundef %66, ptr noundef %69) #3
  call void @llvm.lifetime.end.p0(i64 8, ptr %17) #3
  call void @llvm.lifetime.end.p0(i64 8, ptr %16) #3
  call void @llvm.lifetime.end.p0(i64 8, ptr %15) #3
  br label %71

71:                                               ; preds = %54
  %72 = call noundef nonnull align 8 dereferenceable(8) ptr @_ZN9__gnu_cxx17__normal_iteratorIPK11cmGraphEdgeSt6vectorIS1_SaIS1_EEEppEv(ptr noundef nonnull align 8 dereferenceable(8) %13) #3
  br label %51

73:                                               ; preds = %53
  call void @llvm.lifetime.end.p0(i64 8, ptr %11) #3
  call void @llvm.lifetime.end.p0(i64 8, ptr %10) #3
  br label %74

74:                                               ; preds = %73
  %75 = load i64, ptr %8, align 8, !tbaa !17
  %76 = add i64 %75, 1
  store i64 %76, ptr %8, align 8, !tbaa !17
  br label %25, !llvm.loop !224

77:                                               ; preds = %29
  %78 = load ptr, ptr @stderr, align 8, !tbaa !219
  %79 = call i32 (ptr, ptr, ...) @fprintf(ptr noundef %78, ptr noundef @.str.17) #3
  call void @llvm.lifetime.end.p0(i64 8, ptr %7) #3
  ret void
}