; Function Attrs: cold mustprogress uwtable
define dso_local void @_ZN22cmComputeTargetDepends12DisplayGraphERK20cmGraphAdjacencyListRKNSt7__cxx1112basic_stringIcSt11char_traitsIcESaIcEEE(ptr noundef nonnull readonly align 8 captures(none) dereferenceable(232) %0, ptr noundef nonnull readonly align 8 captures(none) dereferenceable(24) %1, ptr noundef nonnull readonly align 8 captures(none) dereferenceable(32) %2) local_unnamed_addr #6 align 2 {
  %4 = load ptr, ptr @stderr, align 8, !tbaa !232
  %5 = load ptr, ptr %2, align 8, !tbaa !174
  %6 = tail call i32 (ptr, ptr, ...) @fprintf(ptr noundef %4, ptr noundef nonnull @.str.12, ptr noundef %5) #29
  %7 = getelementptr inbounds nuw i8, ptr %1, i64 8
  %8 = load ptr, ptr %7, align 8, !tbaa !189
  %9 = load ptr, ptr %1, align 8, !tbaa !188
  %.not27 = icmp eq ptr %8, %9
  br i1 %.not27, label %._crit_edge26, label %.lr.ph25

.lr.ph25:                                         ; preds = %3
  %10 = ptrtoint ptr %8 to i64
  %11 = ptrtoint ptr %9 to i64
  %12 = sub i64 %10, %11
  %13 = sdiv exact i64 %12, 24
  %14 = getelementptr inbounds nuw i8, ptr %0, i64 16
  %umax = tail call i64 @llvm.umax.i64(i64 %13, i64 1)
  br label %16

._crit_edge26:                                    ; preds = %._crit_edge, %3
  %15 = load ptr, ptr @stderr, align 8, !tbaa !232
  %fputc = tail call i32 @fputc(i32 10, ptr %15)
  ret void

16:                                               ; preds = %.lr.ph25, %._crit_edge
  %.023 = phi i64 [ 0, %.lr.ph25 ], [ %29, %._crit_edge ]
  %17 = load ptr, ptr %1, align 8, !tbaa !188
  %18 = getelementptr inbounds nuw %struct.cmGraphEdgeList, ptr %17, i64 %.023
  %19 = load ptr, ptr %14, align 8, !tbaa !181
  %20 = getelementptr inbounds nuw ptr, ptr %19, i64 %.023
  %21 = load ptr, ptr %20, align 8, !tbaa !218
  %22 = load ptr, ptr @stderr, align 8, !tbaa !232
  %23 = tail call noundef nonnull align 8 dereferenceable(32) ptr @_ZNK17cmGeneratorTarget7GetNameB5cxx11Ev(ptr noundef nonnull align 8 dereferenceable(2912) %21)
  %24 = load ptr, ptr %23, align 8, !tbaa !174
  %25 = tail call i32 (ptr, ptr, ...) @fprintf(ptr noundef %22, ptr noundef nonnull @.str.13, i64 noundef %.023, ptr noundef %24) #29
  %26 = load ptr, ptr %18, align 8, !tbaa !234
  %27 = getelementptr inbounds nuw i8, ptr %18, i64 8
  %28 = load ptr, ptr %27, align 8, !tbaa !234
  %.not21 = icmp eq ptr %26, %28
  br i1 %.not21, label %._crit_edge, label %.lr.ph

._crit_edge:                                      ; preds = %.lr.ph, %16
  %29 = add nuw i64 %.023, 1
  %exitcond.not = icmp eq i64 %29, %umax
  br i1 %exitcond.not, label %._crit_edge26, label %16, !llvm.loop !235

.lr.ph:                                           ; preds = %16, %.lr.ph
  %.sroa.018.022 = phi ptr [ %42, %.lr.ph ], [ %26, %16 ]
  %30 = load i64, ptr %.sroa.018.022, align 8, !tbaa !236
  %31 = load ptr, ptr %14, align 8, !tbaa !181
  %32 = getelementptr inbounds nuw ptr, ptr %31, i64 %30
  %33 = load ptr, ptr %32, align 8, !tbaa !218
  %34 = load ptr, ptr @stderr, align 8, !tbaa !232
  %35 = tail call noundef nonnull align 8 dereferenceable(32) ptr @_ZNK17cmGeneratorTarget7GetNameB5cxx11Ev(ptr noundef nonnull align 8 dereferenceable(2912) %33)
  %36 = load ptr, ptr %35, align 8, !tbaa !174
  %37 = getelementptr inbounds nuw i8, ptr %.sroa.018.022, i64 8
  %38 = load i8, ptr %37, align 8, !tbaa !243, !range !211, !noundef !212
  %39 = trunc nuw i8 %38 to i1
  %40 = select i1 %39, ptr @.str.15, ptr @.str.16
  %41 = tail call i32 (ptr, ptr, ...) @fprintf(ptr noundef %34, ptr noundef nonnull @.str.14, i64 noundef %30, ptr noundef %36, ptr noundef nonnull %40) #29
  %42 = getelementptr inbounds nuw i8, ptr %.sroa.018.022, i64 32
  %.not = icmp eq ptr %42, %28
  br i1 %.not, label %._crit_edge, label %.lr.ph
}